; Function Attrs: nounwind uwtable
define dso_local ptr @list_union_ptr(ptr noundef readonly captures(address_is_null) %0, ptr noundef readonly captures(address_is_null) %1) local_unnamed_addr #0 {
  %3 = icmp eq ptr %0, null
  br i1 %3, label %list_copy.exit, label %4

4:                                                ; preds = %2
  %5 = load i32, ptr %0, align 8
  %6 = getelementptr inbounds nuw i8, ptr %0, i64 4
  %7 = load i32, ptr %6, align 4
  %8 = add i32 %7, 3
  %9 = tail call i32 @llvm.smax.i32(i32 %8, i32 8)
  %10 = tail call range(i32 1, 32) i32 @llvm.ctpop.i32(i32 %9)
  %11 = icmp samesign ult i32 %10, 2
  %12 = tail call range(i32 0, 33) i32 @llvm.ctlz.i32(i32 %9, i1 true)
  %13 = xor i32 %12, 31
  %14 = shl nuw i32 2, %13
  %.0.i.i.i = select i1 %11, i32 %9, i32 %14
  %15 = add i32 %.0.i.i.i, -3
  %16 = zext nneg i32 %15 to i64
  %17 = shl nuw nsw i64 %16, 3
  %18 = add nuw nsw i64 %17, 24
  %19 = tail call ptr @palloc(i64 noundef %18) #9
  store i32 %5, ptr %19, align 8
  %20 = getelementptr inbounds nuw i8, ptr %19, i64 4
  store i32 %7, ptr %20, align 4
  %21 = getelementptr inbounds nuw i8, ptr %19, i64 8
  store i32 %15, ptr %21, align 8
  %22 = getelementptr inbounds nuw i8, ptr %19, i64 24
  %23 = getelementptr inbounds nuw i8, ptr %19, i64 16
  store ptr %22, ptr %23, align 8
  %24 = getelementptr inbounds nuw i8, ptr %0, i64 16
  %25 = load ptr, ptr %24, align 8
  %26 = sext i32 %7 to i64
  %27 = shl nsw i64 %26, 3
  tail call void @llvm.memcpy.p0.p0.i64(ptr nonnull align 8 %22, ptr align 8 %25, i64 %27, i1 false)
  br label %list_copy.exit

list_copy.exit:                                   ; preds = %2, %4
  %.0.i = phi ptr [ %19, %4 ], [ null, %2 ]
  %28 = getelementptr inbounds nuw i8, ptr %1, i64 4
  %.not = icmp eq ptr %1, null
  br i1 %.not, label %._crit_edge, label %.lr.ph

.lr.ph:                                           ; preds = %list_copy.exit
  %29 = getelementptr inbounds nuw i8, ptr %1, i64 16
  %30 = load i32, ptr %28, align 4
  %31 = icmp sgt i32 %30, 0
  br i1 %31, label %.lr.ph24, label %._crit_edge

._crit_edge:                                      ; preds = %list_member_ptr.exit, %.lr.ph, %list_copy.exit
  %.0.lcssa = phi ptr [ %.0.i, %list_copy.exit ], [ %.0.i, %.lr.ph ], [ %.1, %list_member_ptr.exit ]
  ret ptr %.0.lcssa

.lr.ph24:                                         ; preds = %.lr.ph, %list_member_ptr.exit
  %32 = phi i32 [ %47, %list_member_ptr.exit ], [ %30, %.lr.ph ]
  %indvars.iv = phi i64 [ %indvars.iv.next, %list_member_ptr.exit ], [ 0, %.lr.ph ]
  %.01822 = phi ptr [ %.1, %list_member_ptr.exit ], [ %.0.i, %.lr.ph ]
  %33 = load ptr, ptr %29, align 8
  %34 = getelementptr inbounds nuw %union.ListCell, ptr %33, i64 %indvars.iv
  %35 = load ptr, ptr %34, align 8
  %36 = getelementptr inbounds nuw i8, ptr %.01822, i64 16
  %.not.i = icmp eq ptr %.01822, null
  br i1 %.not.i, label %.loopexit, label %.lr.ph.i

.lr.ph.i:                                         ; preds = %.lr.ph24
  %37 = getelementptr inbounds nuw i8, ptr %.01822, i64 4
  %38 = load i32, ptr %37, align 4
  %39 = icmp sgt i32 %38, 0
  br i1 %39, label %.lr.ph23.i, label %.loopexit

.lr.ph23.i:                                       ; preds = %.lr.ph.i
  %40 = load ptr, ptr %36, align 8
  %wide.trip.count.i = zext nneg i32 %38 to i64
  br label %42

41:                                               ; preds = %42
  %indvars.iv.next.i = add nuw nsw i64 %indvars.iv.i, 1
  %exitcond.not.i = icmp eq i64 %indvars.iv.next.i, %wide.trip.count.i
  br i1 %exitcond.not.i, label %.loopexit, label %42

42:                                               ; preds = %41, %.lr.ph23.i
  %indvars.iv.i = phi i64 [ 0, %.lr.ph23.i ], [ %indvars.iv.next.i, %41 ]
  %43 = getelementptr inbounds nuw %union.ListCell, ptr %40, i64 %indvars.iv.i
  %44 = load ptr, ptr %43, align 8
  %45 = icmp eq ptr %44, %35
  br i1 %45, label %list_member_ptr.exit, label %41

.loopexit:                                        ; preds = %41, %.lr.ph24, %.lr.ph.i
  %46 = tail call ptr @lappend(ptr noundef %.01822, ptr noundef %35)
  %.pre = load i32, ptr %28, align 4
  br label %list_member_ptr.exit

list_member_ptr.exit:                             ; preds = %42, %.loopexit
  %47 = phi i32 [ %.pre, %.loopexit ], [ %32, %42 ]
  %.1 = phi ptr [ %46, %.loopexit ], [ %.01822, %42 ]
  %indvars.iv.next = add nuw nsw i64 %indvars.iv, 1
  %48 = sext i32 %47 to i64
  %49 = icmp slt i64 %indvars.iv.next, %48
  br i1 %49, label %.lr.ph24, label %._crit_edge
}